target datalayout = "e-m:e-p270:32:32-p271:32:32-p272:64:64-i64:64-i128:128-f80:128-n8:16:32:64-S128"
target triple = "x86_64-pc-linux-gnu"

%"class.bParse::b3BulletFile" = type { %"class.bParse::bFile.base", ptr, %class.b3AlignedObjectArray.0, %class.b3AlignedObjectArray.0, %class.b3AlignedObjectArray.0, %class.b3AlignedObjectArray.0, %class.b3AlignedObjectArray.0, %class.b3AlignedObjectArray.0, %class.b3AlignedObjectArray.0, %class.b3AlignedObjectArray.0, %class.b3AlignedObjectArray.4 }
%"class.bParse::bFile.base" = type <{ ptr, [7 x i8], i8, ptr, i32, i32, %class.b3HashMap, i32, [4 x i8], ptr, ptr, %class.b3AlignedObjectArray.4, %class.b3AlignedObjectArray.4, %class.b3AlignedObjectArray.6, %class.b3HashMap.8, %class.b3HashMap, i32 }>
%class.b3AlignedObjectArray.6 = type <{ [4 x i8], i32, i32, [4 x i8], ptr, i8, [7 x i8] }>
%class.b3HashMap.8 = type { %class.b3AlignedObjectArray, %class.b3AlignedObjectArray, %class.b3AlignedObjectArray.6, %class.b3AlignedObjectArray.2 }
%class.b3AlignedObjectArray = type <{ [4 x i8], i32, i32, [4 x i8], ptr, i8, [7 x i8] }>
%class.b3AlignedObjectArray.2 = type <{ [4 x i8], i32, i32, [4 x i8], ptr, i8, [7 x i8] }>
%class.b3HashMap = type { %class.b3AlignedObjectArray, %class.b3AlignedObjectArray, %class.b3AlignedObjectArray.0, %class.b3AlignedObjectArray.2 }
%class.b3AlignedObjectArray.0 = type <{ [4 x i8], i32, i32, [4 x i8], ptr, i8, [7 x i8] }>
%class.b3AlignedObjectArray.4 = type <{ [4 x i8], i32, i32, [4 x i8], ptr, i8, [7 x i8] }>

@.str.1 = private unnamed_addr constant [8 x i8] c"BULLET \00", align 1

; Function Attrs: mustprogress uwtable
define linkonce_odr dso_local void @_ZN18b3AlignedAllocatorIPN6bParse13bStructHandleELj16EE10deallocateEPS2_(ptr noundef nonnull align 1 dereferenceable(1) %0, ptr noundef %1) #0 comdat align 2 {
  %3 = alloca ptr, align 8
  %4 = alloca ptr, align 8
  store ptr %0, ptr %3, align 8, !tbaa !92
  store ptr %1, ptr %4, align 8, !tbaa !68
  %5 = load ptr, ptr %4, align 8, !tbaa !68
  call void @_Z21b3AlignedFreeInternalPv(ptr noundef %5)
  ret void
}

; Function Attrs: inlinehint mustprogress uwtable
define linkonce_odr dso_local void @_ZN20b3AlignedObjectArrayIPN6bParse13bStructHandleEE10deallocateEv(ptr noundef nonnull align 8 dereferenceable(25) %0) #10 comdat align 2 {
  %2 = alloca ptr, align 8
  store ptr %0, ptr %2, align 8, !tbaa !37
  %3 = load ptr, ptr %2, align 8
  %4 = getelementptr inbounds nuw %class.b3AlignedObjectArray.0, ptr %3, i32 0, i32 4
  %5 = load ptr, ptr %4, align 8, !tbaa !73
  %6 = icmp ne ptr %5, null
  br i1 %6, label %7, label %16

7:                                                ; preds = %1
  %8 = getelementptr inbounds nuw %class.b3AlignedObjectArray.0, ptr %3, i32 0, i32 5
  %9 = load i8, ptr %8, align 8, !tbaa !94, !range !52, !noundef !53
  %10 = trunc i8 %9 to i1
  br i1 %10, label %11, label %14

11:                                               ; preds = %7
  %12 = getelementptr inbounds nuw %class.b3AlignedObjectArray.0, ptr %3, i32 0, i32 4
  %13 = load ptr, ptr %12, align 8, !tbaa !73
  call void @_ZN18b3AlignedAllocatorIPN6bParse13bStructHandleELj16EE10deallocateEPS2_(ptr noundef nonnull align 1 dereferenceable(1) %3, ptr noundef %13)
  br label %14

14:                                               ; preds = %11, %7
  %15 = getelementptr inbounds nuw %class.b3AlignedObjectArray.0, ptr %3, i32 0, i32 4
  store ptr null, ptr %15, align 8, !tbaa !73
  br label %16

16:                                               ; preds = %14, %1
  ret void
}

; Function Attrs: inlinehint mustprogress nounwind uwtable
define linkonce_odr dso_local void @_ZN20b3AlignedObjectArrayIPN6bParse13bStructHandleEE7destroyEii(ptr noundef nonnull align 8 dereferenceable(25) %0, i32 noundef %1, i32 noundef %2) #8 comdat align 2 {
  %4 = alloca ptr, align 8
  %5 = alloca i32, align 4
  %6 = alloca i32, align 4
  %7 = alloca i32, align 4
  store ptr %0, ptr %4, align 8, !tbaa !37
  store i32 %1, ptr %5, align 4, !tbaa !36
  store i32 %2, ptr %6, align 4, !tbaa !36
  call void @llvm.lifetime.start.p0(i64 4, ptr %7) #13
  %8 = load i32, ptr %5, align 4, !tbaa !36
  store i32 %8, ptr %7, align 4, !tbaa !36
  br label %9

9:                                                ; preds = %14, %3
  %10 = load i32, ptr %7, align 4, !tbaa !36
  %11 = load i32, ptr %6, align 4, !tbaa !36
  %12 = icmp slt i32 %10, %11
  br i1 %12, label %13, label %17

13:                                               ; preds = %9
  br label %14

14:                                               ; preds = %13
  %15 = load i32, ptr %7, align 4, !tbaa !36
  %16 = add nsw i32 %15, 1
  store i32 %16, ptr %7, align 4, !tbaa !36
  br label %9, !llvm.loop !96

17:                                               ; preds = %9
  call void @llvm.lifetime.end.p0(i64 4, ptr %7) #13
  ret void
}

; Function Attrs: inlinehint mustprogress nounwind uwtable
define linkonce_odr dso_local noundef i32 @_ZNK20b3AlignedObjectArrayIPN6bParse13bStructHandleEE4sizeEv(ptr noundef nonnull align 8 dereferenceable(25) %0) #8 comdat align 2 {
  %2 = alloca ptr, align 8
  store ptr %0, ptr %2, align 8, !tbaa !37
  %3 = load ptr, ptr %2, align 8
  %4 = getelementptr inbounds nuw %class.b3AlignedObjectArray.0, ptr %3, i32 0, i32 1
  %5 = load i32, ptr %4, align 4, !tbaa !74
  ret i32 %5
}

; Function Attrs: noinline noreturn nounwind uwtable
define linkonce_odr hidden void @__clang_call_terminate(ptr noundef %0) #7 comdat {
  %2 = call ptr @__cxa_begin_catch(ptr %0) #13
  call void @_ZSt9terminatev() #14
  unreachable
}

; Function Attrs: inlinehint mustprogress uwtable
define linkonce_odr dso_local void @_ZN20b3AlignedObjectArrayIPN6bParse13bStructHandleEE5clearEv(ptr noundef nonnull align 8 dereferenceable(25) %0) #10 comdat align 2 {
  %2 = alloca ptr, align 8
  store ptr %0, ptr %2, align 8, !tbaa !37
  %3 = load ptr, ptr %2, align 8
  %4 = call noundef i32 @_ZNK20b3AlignedObjectArrayIPN6bParse13bStructHandleEE4sizeEv(ptr noundef nonnull align 8 dereferenceable(25) %3)
  call void @_ZN20b3AlignedObjectArrayIPN6bParse13bStructHandleEE7destroyEii(ptr noundef nonnull align 8 dereferenceable(25) %3, i32 noundef 0, i32 noundef %4)
  call void @_ZN20b3AlignedObjectArrayIPN6bParse13bStructHandleEE10deallocateEv(ptr noundef nonnull align 8 dereferenceable(25) %3)
  call void @_ZN20b3AlignedObjectArrayIPN6bParse13bStructHandleEE4initEv(ptr noundef nonnull align 8 dereferenceable(25) %3)
  ret void
}

; Function Attrs: inlinehint mustprogress nounwind uwtable
define linkonce_odr dso_local void @_ZN20b3AlignedObjectArrayIPcE4initEv(ptr noundef nonnull align 8 dereferenceable(25) %0) #8 comdat align 2 {
  %2 = alloca ptr, align 8
  store ptr %0, ptr %2, align 8, !tbaa !39
  %3 = load ptr, ptr %2, align 8
  %4 = getelementptr inbounds nuw %class.b3AlignedObjectArray.4, ptr %3, i32 0, i32 5
  store i8 1, ptr %4, align 8, !tbaa !85
  %5 = getelementptr inbounds nuw %class.b3AlignedObjectArray.4, ptr %3, i32 0, i32 4
  store ptr null, ptr %5, align 8, !tbaa !45
  %6 = getelementptr inbounds nuw %class.b3AlignedObjectArray.4, ptr %3, i32 0, i32 1
  store i32 0, ptr %6, align 4, !tbaa !44
  %7 = getelementptr inbounds nuw %class.b3AlignedObjectArray.4, ptr %3, i32 0, i32 2
  store i32 0, ptr %7, align 8, !tbaa !84
  ret void
}

; Function Attrs: mustprogress nounwind uwtable
define linkonce_odr dso_local void @_ZN18b3AlignedAllocatorIPcLj16EEC2Ev(ptr noundef nonnull align 1 dereferenceable(1) %0) unnamed_addr #5 comdat align 2 {
  %2 = alloca ptr, align 8
  store ptr %0, ptr %2, align 8, !tbaa !88
  ret void
}

; Function Attrs: inlinehint mustprogress nounwind uwtable
define linkonce_odr dso_local void @_ZN20b3AlignedObjectArrayIPN6bParse13bStructHandleEE4initEv(ptr noundef nonnull align 8 dereferenceable(25) %0) #8 comdat align 2 {
  %2 = alloca ptr, align 8
  store ptr %0, ptr %2, align 8, !tbaa !37
  %3 = load ptr, ptr %2, align 8
  %4 = getelementptr inbounds nuw %class.b3AlignedObjectArray.0, ptr %3, i32 0, i32 5
  store i8 1, ptr %4, align 8, !tbaa !94
  %5 = getelementptr inbounds nuw %class.b3AlignedObjectArray.0, ptr %3, i32 0, i32 4
  store ptr null, ptr %5, align 8, !tbaa !73
  %6 = getelementptr inbounds nuw %class.b3AlignedObjectArray.0, ptr %3, i32 0, i32 1
  store i32 0, ptr %6, align 4, !tbaa !74
  %7 = getelementptr inbounds nuw %class.b3AlignedObjectArray.0, ptr %3, i32 0, i32 2
  store i32 0, ptr %7, align 8, !tbaa !95
  ret void
}

; Function Attrs: mustprogress nounwind uwtable
define linkonce_odr dso_local void @_ZN18b3AlignedAllocatorIPN6bParse13bStructHandleELj16EEC2Ev(ptr noundef nonnull align 1 dereferenceable(1) %0) unnamed_addr #5 comdat align 2 {
  %2 = alloca ptr, align 8
  store ptr %0, ptr %2, align 8, !tbaa !92
  ret void
}

; Function Attrs: mustprogress nounwind uwtable
define linkonce_odr dso_local void @_ZN20b3AlignedObjectArrayIPN6bParse13bStructHandleEED2Ev(ptr noundef nonnull align 8 dereferenceable(25) %0) unnamed_addr #5 comdat align 2 personality ptr @__gxx_personality_v0 {
  %2 = alloca ptr, align 8
  store ptr %0, ptr %2, align 8, !tbaa !37
  %3 = load ptr, ptr %2, align 8
  invoke void @_ZN20b3AlignedObjectArrayIPN6bParse13bStructHandleEE5clearEv(ptr noundef nonnull align 8 dereferenceable(25) %3)
          to label %4 unwind label %5

4:                                                ; preds = %1
  ret void

5:                                                ; preds = %1
  %6 = landingpad { ptr, i32 }
          catch ptr null
  %7 = extractvalue { ptr, i32 } %6, 0
  call void @__clang_call_terminate(ptr %7) #14
  unreachable
}

; Function Attrs: mustprogress uwtable
define linkonce_odr dso_local void @_ZN20b3AlignedObjectArrayIPcEC2Ev(ptr noundef nonnull align 8 dereferenceable(25) %0) unnamed_addr #0 comdat align 2 {
  %2 = alloca ptr, align 8
  store ptr %0, ptr %2, align 8, !tbaa !39
  %3 = load ptr, ptr %2, align 8
  call void @_ZN18b3AlignedAllocatorIPcLj16EEC2Ev(ptr noundef nonnull align 1 dereferenceable(1) %3)
  call void @_ZN20b3AlignedObjectArrayIPcE4initEv(ptr noundef nonnull align 8 dereferenceable(25) %3)
  ret void
}

; Function Attrs: mustprogress uwtable
define linkonce_odr dso_local void @_ZN20b3AlignedObjectArrayIPN6bParse13bStructHandleEEC2Ev(ptr noundef nonnull align 8 dereferenceable(25) %0) unnamed_addr #0 comdat align 2 {
  %2 = alloca ptr, align 8
  store ptr %0, ptr %2, align 8, !tbaa !37
  %3 = load ptr, ptr %2, align 8
  call void @_ZN18b3AlignedAllocatorIPN6bParse13bStructHandleELj16EEC2Ev(ptr noundef nonnull align 1 dereferenceable(1) %3)
  call void @_ZN20b3AlignedObjectArrayIPN6bParse13bStructHandleEE4initEv(ptr noundef nonnull align 8 dereferenceable(25) %3)
  ret void
}

; Function Attrs: mustprogress uwtable
define dso_local void @_ZN6bParse12b3BulletFileC2EPci(ptr noundef nonnull align 8 dereferenceable(840) %0, ptr noundef %1, i32 noundef %2) unnamed_addr #0 align 2 personality ptr @__gxx_personality_v0 {
  %4 = alloca ptr, align 8
  %5 = alloca ptr, align 8
  %6 = alloca i32, align 4
  %7 = alloca ptr, align 8
  %8 = alloca i32, align 4
  store ptr %0, ptr %4, align 8, !tbaa !4
  store ptr %1, ptr %5, align 8, !tbaa !41
  store i32 %2, ptr %6, align 4, !tbaa !36
  %9 = load ptr, ptr %4, align 8
  %10 = load ptr, ptr %5, align 8, !tbaa !41
  %11 = load i32, ptr %6, align 4, !tbaa !36
  call void @_ZN6bParse5bFileC2EPciPKc(ptr noundef nonnull align 8 dereferenceable(540) %9, ptr noundef %10, i32 noundef %11, ptr noundef @.str.1)
  store ptr getelementptr inbounds inrange(-16, 72) ({ [11 x ptr] }, ptr @_ZTVN6bParse12b3BulletFileE, i32 0, i32 0, i32 2), ptr %9, align 8, !tbaa !9
  %12 = getelementptr inbounds nuw %"class.bParse::b3BulletFile", ptr %9, i32 0, i32 2
  invoke void @_ZN20b3AlignedObjectArrayIPN6bParse13bStructHandleEEC2Ev(ptr noundef nonnull align 8 dereferenceable(25) %12)
          to label %13 unwind label %31

13:                                               ; preds = %3
  %14 = getelementptr inbounds nuw %"class.bParse::b3BulletFile", ptr %9, i32 0, i32 3
  invoke void @_ZN20b3AlignedObjectArrayIPN6bParse13bStructHandleEEC2Ev(ptr noundef nonnull align 8 dereferenceable(25) %14)
          to label %15 unwind label %35

15:                                               ; preds = %13
  %16 = getelementptr inbounds nuw %"class.bParse::b3BulletFile", ptr %9, i32 0, i32 4
  invoke void @_ZN20b3AlignedObjectArrayIPN6bParse13bStructHandleEEC2Ev(ptr noundef nonnull align 8 dereferenceable(25) %16)
          to label %17 unwind label %39

17:                                               ; preds = %15
  %18 = getelementptr inbounds nuw %"class.bParse::b3BulletFile", ptr %9, i32 0, i32 5
  invoke void @_ZN20b3AlignedObjectArrayIPN6bParse13bStructHandleEEC2Ev(ptr noundef nonnull align 8 dereferenceable(25) %18)
          to label %19 unwind label %43

19:                                               ; preds = %17
  %20 = getelementptr inbounds nuw %"class.bParse::b3BulletFile", ptr %9, i32 0, i32 6
  invoke void @_ZN20b3AlignedObjectArrayIPN6bParse13bStructHandleEEC2Ev(ptr noundef nonnull align 8 dereferenceable(25) %20)
          to label %21 unwind label %47

21:                                               ; preds = %19
  %22 = getelementptr inbounds nuw %"class.bParse::b3BulletFile", ptr %9, i32 0, i32 7
  invoke void @_ZN20b3AlignedObjectArrayIPN6bParse13bStructHandleEEC2Ev(ptr noundef nonnull align 8 dereferenceable(25) %22)
          to label %23 unwind label %51

23:                                               ; preds = %21
  %24 = getelementptr inbounds nuw %"class.bParse::b3BulletFile", ptr %9, i32 0, i32 8
  invoke void @_ZN20b3AlignedObjectArrayIPN6bParse13bStructHandleEEC2Ev(ptr noundef nonnull align 8 dereferenceable(25) %24)
          to label %25 unwind label %55

25:                                               ; preds = %23
  %26 = getelementptr inbounds nuw %"class.bParse::b3BulletFile", ptr %9, i32 0, i32 9
  invoke void @_ZN20b3AlignedObjectArrayIPN6bParse13bStructHandleEEC2Ev(ptr noundef nonnull align 8 dereferenceable(25) %26)
          to label %27 unwind label %59

27:                                               ; preds = %25
  %28 = getelementptr inbounds nuw %"class.bParse::b3BulletFile", ptr %9, i32 0, i32 10
  invoke void @_ZN20b3AlignedObjectArrayIPcEC2Ev(ptr noundef nonnull align 8 dereferenceable(25) %28)
          to label %29 unwind label %63

29:                                               ; preds = %27
  %30 = getelementptr inbounds nuw %"class.bParse::b3BulletFile", ptr %9, i32 0, i32 1
  store ptr null, ptr %30, align 8, !tbaa !34
  ret void

31:                                               ; preds = %3
  %32 = landingpad { ptr, i32 }
          cleanup
  %33 = extractvalue { ptr, i32 } %32, 0
  store ptr %33, ptr %7, align 8
  %34 = extractvalue { ptr, i32 } %32, 1
  store i32 %34, ptr %8, align 4
  br label %74

35:                                               ; preds = %13
  %36 = landingpad { ptr, i32 }
          cleanup
  %37 = extractvalue { ptr, i32 } %36, 0
  store ptr %37, ptr %7, align 8
  %38 = extractvalue { ptr, i32 } %36, 1
  store i32 %38, ptr %8, align 4
  br label %73

39:                                               ; preds = %15
  %40 = landingpad { ptr, i32 }
          cleanup
  %41 = extractvalue { ptr, i32 } %40, 0
  store ptr %41, ptr %7, align 8
  %42 = extractvalue { ptr, i32 } %40, 1
  store i32 %42, ptr %8, align 4
  br label %72

43:                                               ; preds = %17
  %44 = landingpad { ptr, i32 }
          cleanup
  %45 = extractvalue { ptr, i32 } %44, 0
  store ptr %45, ptr %7, align 8
  %46 = extractvalue { ptr, i32 } %44, 1
  store i32 %46, ptr %8, align 4
  br label %71

47:                                               ; preds = %19
  %48 = landingpad { ptr, i32 }
          cleanup
  %49 = extractvalue { ptr, i32 } %48, 0
  store ptr %49, ptr %7, align 8
  %50 = extractvalue { ptr, i32 } %48, 1
  store i32 %50, ptr %8, align 4
  br label %70

51:                                               ; preds = %21
  %52 = landingpad { ptr, i32 }
          cleanup
  %53 = extractvalue { ptr, i32 } %52, 0
  store ptr %53, ptr %7, align 8
  %54 = extractvalue { ptr, i32 } %52, 1
  store i32 %54, ptr %8, align 4
  br label %69

55:                                               ; preds = %23
  %56 = landingpad { ptr, i32 }
          cleanup
  %57 = extractvalue { ptr, i32 } %56, 0
  store ptr %57, ptr %7, align 8
  %58 = extractvalue { ptr, i32 } %56, 1
  store i32 %58, ptr %8, align 4
  br label %68

59:                                               ; preds = %25
  %60 = landingpad { ptr, i32 }
          cleanup
  %61 = extractvalue { ptr, i32 } %60, 0
  store ptr %61, ptr %7, align 8
  %62 = extractvalue { ptr, i32 } %60, 1
  store i32 %62, ptr %8, align 4
  br label %67

63:                                               ; preds = %27
  %64 = landingpad { ptr, i32 }
          cleanup
  %65 = extractvalue { ptr, i32 } %64, 0
  store ptr %65, ptr %7, align 8
  %66 = extractvalue { ptr, i32 } %64, 1
  store i32 %66, ptr %8, align 4
  call void @_ZN20b3AlignedObjectArrayIPN6bParse13bStructHandleEED2Ev(ptr noundef nonnull align 8 dereferenceable(25) %26) #13
  br label %67

67:                                               ; preds = %63, %59
  call void @_ZN20b3AlignedObjectArrayIPN6bParse13bStructHandleEED2Ev(ptr noundef nonnull align 8 dereferenceable(25) %24) #13
  br label %68

68:                                               ; preds = %67, %55
  call void @_ZN20b3AlignedObjectArrayIPN6bParse13bStructHandleEED2Ev(ptr noundef nonnull align 8 dereferenceable(25) %22) #13
  br label %69

69:                                               ; preds = %68, %51
  call void @_ZN20b3AlignedObjectArrayIPN6bParse13bStructHandleEED2Ev(ptr noundef nonnull align 8 dereferenceable(25) %20) #13
  br label %70

70:                                               ; preds = %69, %47
  call void @_ZN20b3AlignedObjectArrayIPN6bParse13bStructHandleEED2Ev(ptr noundef nonnull align 8 dereferenceable(25) %18) #13
  br label %71

71:                                               ; preds = %70, %43
  call void @_ZN20b3AlignedObjectArrayIPN6bParse13bStructHandleEED2Ev(ptr noundef nonnull align 8 dereferenceable(25) %16) #13
  br label %72

72:                                               ; preds = %71, %39
  call void @_ZN20b3AlignedObjectArrayIPN6bParse13bStructHandleEED2Ev(ptr noundef nonnull align 8 dereferenceable(25) %14) #13
  br label %73

73:                                               ; preds = %72, %35
  call void @_ZN20b3AlignedObjectArrayIPN6bParse13bStructHandleEED2Ev(ptr noundef nonnull align 8 dereferenceable(25) %12) #13
  br label %74

74:                                               ; preds = %73, %31
  call void @_ZN6bParse5bFileD2Ev(ptr noundef nonnull align 8 dereferenceable(540) %9) #13
  br label %75

75:                                               ; preds = %74
  %76 = load ptr, ptr %7, align 8
  %77 = load i32, ptr %8, align 4
  %78 = insertvalue { ptr, i32 } poison, ptr %76, 0
  %79 = insertvalue { ptr, i32 } %78, i32 %77, 1
  resume { ptr, i32 } %79
}