; Function Attrs: mustprogress uwtable
define dso_local void @_ZN6bParse12b3BulletFileC2EPci(ptr noundef nonnull align 8 dereferenceable(840) %0, ptr noundef %1, i32 noundef %2) unnamed_addr #0 align 2 personality ptr @__gxx_personality_v0 {
  tail call void @_ZN6bParse5bFileC2EPciPKc(ptr noundef nonnull align 8 dereferenceable(540) %0, ptr noundef %1, i32 noundef %2, ptr noundef nonnull @.str.1)
  store ptr getelementptr inbounds nuw inrange(-16, 72) (i8, ptr @_ZTVN6bParse12b3BulletFileE, i64 16), ptr %0, align 8, !tbaa !4
  %4 = getelementptr inbounds nuw i8, ptr %0, i64 576
  store i8 1, ptr %4, align 8, !tbaa !7
  %5 = getelementptr inbounds nuw i8, ptr %0, i64 568
  store ptr null, ptr %5, align 8, !tbaa !15
  %6 = getelementptr inbounds nuw i8, ptr %0, i64 556
  store i32 0, ptr %6, align 4, !tbaa !16
  %7 = getelementptr inbounds nuw i8, ptr %0, i64 560
  store i32 0, ptr %7, align 8, !tbaa !17
  %8 = getelementptr inbounds nuw i8, ptr %0, i64 608
  store i8 1, ptr %8, align 8, !tbaa !7
  %9 = getelementptr inbounds nuw i8, ptr %0, i64 600
  store ptr null, ptr %9, align 8, !tbaa !15
  %10 = getelementptr inbounds nuw i8, ptr %0, i64 588
  store i32 0, ptr %10, align 4, !tbaa !16
  %11 = getelementptr inbounds nuw i8, ptr %0, i64 592
  store i32 0, ptr %11, align 8, !tbaa !17
  %12 = getelementptr inbounds nuw i8, ptr %0, i64 640
  store i8 1, ptr %12, align 8, !tbaa !7
  %13 = getelementptr inbounds nuw i8, ptr %0, i64 632
  store ptr null, ptr %13, align 8, !tbaa !15
  %14 = getelementptr inbounds nuw i8, ptr %0, i64 620
  store i32 0, ptr %14, align 4, !tbaa !16
  %15 = getelementptr inbounds nuw i8, ptr %0, i64 624
  store i32 0, ptr %15, align 8, !tbaa !17
  %16 = getelementptr inbounds nuw i8, ptr %0, i64 672
  store i8 1, ptr %16, align 8, !tbaa !7
  %17 = getelementptr inbounds nuw i8, ptr %0, i64 664
  store ptr null, ptr %17, align 8, !tbaa !15
  %18 = getelementptr inbounds nuw i8, ptr %0, i64 652
  store i32 0, ptr %18, align 4, !tbaa !16
  %19 = getelementptr inbounds nuw i8, ptr %0, i64 656
  store i32 0, ptr %19, align 8, !tbaa !17
  %20 = getelementptr inbounds nuw i8, ptr %0, i64 704
  store i8 1, ptr %20, align 8, !tbaa !7
  %21 = getelementptr inbounds nuw i8, ptr %0, i64 696
  store ptr null, ptr %21, align 8, !tbaa !15
  %22 = getelementptr inbounds nuw i8, ptr %0, i64 684
  store i32 0, ptr %22, align 4, !tbaa !16
  %23 = getelementptr inbounds nuw i8, ptr %0, i64 688
  store i32 0, ptr %23, align 8, !tbaa !17
  %24 = getelementptr inbounds nuw i8, ptr %0, i64 736
  store i8 1, ptr %24, align 8, !tbaa !7
  %25 = getelementptr inbounds nuw i8, ptr %0, i64 728
  store ptr null, ptr %25, align 8, !tbaa !15
  %26 = getelementptr inbounds nuw i8, ptr %0, i64 716
  store i32 0, ptr %26, align 4, !tbaa !16
  %27 = getelementptr inbounds nuw i8, ptr %0, i64 720
  store i32 0, ptr %27, align 8, !tbaa !17
  %28 = getelementptr inbounds nuw i8, ptr %0, i64 768
  store i8 1, ptr %28, align 8, !tbaa !7
  %29 = getelementptr inbounds nuw i8, ptr %0, i64 760
  store ptr null, ptr %29, align 8, !tbaa !15
  %30 = getelementptr inbounds nuw i8, ptr %0, i64 748
  store i32 0, ptr %30, align 4, !tbaa !16
  %31 = getelementptr inbounds nuw i8, ptr %0, i64 752
  store i32 0, ptr %31, align 8, !tbaa !17
  %32 = getelementptr inbounds nuw i8, ptr %0, i64 800
  store i8 1, ptr %32, align 8, !tbaa !7
  %33 = getelementptr inbounds nuw i8, ptr %0, i64 792
  store ptr null, ptr %33, align 8, !tbaa !15
  %34 = getelementptr inbounds nuw i8, ptr %0, i64 780
  store i32 0, ptr %34, align 4, !tbaa !16
  %35 = getelementptr inbounds nuw i8, ptr %0, i64 784
  store i32 0, ptr %35, align 8, !tbaa !17
  %36 = getelementptr inbounds nuw i8, ptr %0, i64 832
  store i8 1, ptr %36, align 8, !tbaa !18
  %37 = getelementptr inbounds nuw i8, ptr %0, i64 824
  store ptr null, ptr %37, align 8, !tbaa !22
  %38 = getelementptr inbounds nuw i8, ptr %0, i64 812
  store i32 0, ptr %38, align 4, !tbaa !23
  %39 = getelementptr inbounds nuw i8, ptr %0, i64 816
  store i32 0, ptr %39, align 8, !tbaa !24
  %40 = getelementptr inbounds nuw i8, ptr %0, i64 544
  store ptr null, ptr %40, align 8, !tbaa !40
  ret void
}